; Function Attrs: mustprogress nofree norecurse nosync nounwind willreturn memory(read, inaccessiblemem: none) uwtable
define noundef i32 @_ZNK9benchmark8internal9Benchmark7ArgsCntEv(ptr noundef nonnull readonly align 8 captures(none) dereferenceable(224) %0) local_unnamed_addr #8 align 2 {
  %2 = getelementptr inbounds nuw i8, ptr %0, i64 72
  %3 = load ptr, ptr %2, align 8, !tbaa !51
  %4 = getelementptr inbounds nuw i8, ptr %0, i64 80
  %5 = load ptr, ptr %4, align 8, !tbaa !51
  %6 = icmp eq ptr %3, %5
  br i1 %6, label %7, label %19

7:                                                ; preds = %1
  %8 = getelementptr inbounds nuw i8, ptr %0, i64 48
  %9 = load ptr, ptr %8, align 8, !tbaa !53
  %10 = getelementptr inbounds nuw i8, ptr %0, i64 56
  %11 = load ptr, ptr %10, align 8, !tbaa !53
  %12 = icmp eq ptr %9, %11
  br i1 %12, label %28, label %13

13:                                               ; preds = %7
  %14 = ptrtoint ptr %11 to i64
  %15 = ptrtoint ptr %9 to i64
  %16 = sub i64 %14, %15
  %17 = lshr exact i64 %16, 5
  %18 = trunc i64 %17 to i32
  br label %28

19:                                               ; preds = %1
  %20 = getelementptr inbounds nuw i8, ptr %3, i64 8
  %21 = load ptr, ptr %20, align 8, !tbaa !55
  %22 = load ptr, ptr %3, align 8, !tbaa !58
  %23 = ptrtoint ptr %21 to i64
  %24 = ptrtoint ptr %22 to i64
  %25 = sub i64 %23, %24
  %26 = lshr exact i64 %25, 3
  %27 = trunc i64 %26 to i32
  br label %28

28:                                               ; preds = %7, %19, %13
  %.0 = phi i32 [ %18, %13 ], [ %27, %19 ], [ -1, %7 ]
  ret i32 %.0
}